; Function Attrs: mustprogress nounwind uwtable
define internal void @_ZN12_GLOBAL__N_124rel_act_case_split_queueD2Ev(ptr nocapture noundef nonnull align 8 dereferenceable(80) %this) unnamed_addr #5 align 2 personality ptr @__gxx_personality_v0 {
entry:
  store ptr getelementptr inbounds ({ [20 x ptr] }, ptr @_ZTVN12_GLOBAL__N_124rel_act_case_split_queueE, i64 0, i32 0, i64 2), ptr %this, align 8
  %m_scopes = getelementptr inbounds i8, ptr %this, i64 72
  %m_scopes.val = load ptr, ptr %m_scopes, align 8
  %tobool.not.i.i.i = icmp eq ptr %m_scopes.val, null
  br i1 %tobool.not.i.i.i, label %_ZN7svectorIN12_GLOBAL__N_124rel_act_case_split_queue5scopeEjED2Ev.exit, label %if.then.i.i.i

if.then.i.i.i:                                    ; preds = %entry
  %add.ptr.i.i.i.i = getelementptr inbounds i8, ptr %m_scopes.val, i64 -8
  invoke void @_ZN6memory10deallocateEPv(ptr noundef nonnull %add.ptr.i.i.i.i)
          to label %_ZN7svectorIN12_GLOBAL__N_124rel_act_case_split_queue5scopeEjED2Ev.exit unwind label %terminate.lpad.i.i

terminate.lpad.i.i:                               ; preds = %if.then.i.i.i
  %0 = landingpad { ptr, i32 }
          catch ptr null
  %1 = extractvalue { ptr, i32 } %0, 0
  tail call void @__clang_call_terminate(ptr %1) #23
  unreachable

_ZN7svectorIN12_GLOBAL__N_124rel_act_case_split_queue5scopeEjED2Ev.exit: ; preds = %entry, %if.then.i.i.i
  %m_value2indices.i = getelementptr inbounds i8, ptr %this, i64 64
  %2 = load ptr, ptr %m_value2indices.i, align 8
  %tobool.not.i.i.i.i = icmp eq ptr %2, null
  br i1 %tobool.not.i.i.i.i, label %_ZN7svectorIijED2Ev.exit.i, label %if.then.i.i.i.i

if.then.i.i.i.i:                                  ; preds = %_ZN7svectorIN12_GLOBAL__N_124rel_act_case_split_queue5scopeEjED2Ev.exit
  %add.ptr.i.i.i.i.i = getelementptr inbounds i8, ptr %2, i64 -8
  invoke void @_ZN6memory10deallocateEPv(ptr noundef nonnull %add.ptr.i.i.i.i.i)
          to label %_ZN7svectorIijED2Ev.exit.i unwind label %terminate.lpad.i.i.i

terminate.lpad.i.i.i:                             ; preds = %if.then.i.i.i.i
  %3 = landingpad { ptr, i32 }
          catch ptr null
  %4 = extractvalue { ptr, i32 } %3, 0
  tail call void @__clang_call_terminate(ptr %4) #23
  unreachable

_ZN7svectorIijED2Ev.exit.i:                       ; preds = %if.then.i.i.i.i, %_ZN7svectorIN12_GLOBAL__N_124rel_act_case_split_queue5scopeEjED2Ev.exit
  %m_values.i = getelementptr inbounds i8, ptr %this, i64 56
  %5 = load ptr, ptr %m_values.i, align 8
  %tobool.not.i.i.i1.i = icmp eq ptr %5, null
  br i1 %tobool.not.i.i.i1.i, label %_ZN4heapIN12_GLOBAL__N_115bool_var_act_ltEED2Ev.exit, label %if.then.i.i.i2.i

if.then.i.i.i2.i:                                 ; preds = %_ZN7svectorIijED2Ev.exit.i
  %add.ptr.i.i.i.i3.i = getelementptr inbounds i8, ptr %5, i64 -8
  invoke void @_ZN6memory10deallocateEPv(ptr noundef nonnull %add.ptr.i.i.i.i3.i)
          to label %_ZN4heapIN12_GLOBAL__N_115bool_var_act_ltEED2Ev.exit unwind label %terminate.lpad.i.i4.i

terminate.lpad.i.i4.i:                            ; preds = %if.then.i.i.i2.i
  %6 = landingpad { ptr, i32 }
          catch ptr null
  %7 = extractvalue { ptr, i32 } %6, 0
  tail call void @__clang_call_terminate(ptr %7) #23
  unreachable

_ZN4heapIN12_GLOBAL__N_115bool_var_act_ltEED2Ev.exit: ; preds = %_ZN7svectorIijED2Ev.exit.i, %if.then.i.i.i2.i
  %m_queue = getelementptr inbounds i8, ptr %this, i64 32
  %8 = load ptr, ptr %m_queue, align 8
  %tobool.not.i.i.i1 = icmp eq ptr %8, null
  br i1 %tobool.not.i.i.i1, label %_ZN10ptr_vectorI4exprED2Ev.exit, label %if.then.i.i.i2

if.then.i.i.i2:                                   ; preds = %_ZN4heapIN12_GLOBAL__N_115bool_var_act_ltEED2Ev.exit
  %add.ptr.i.i.i.i3 = getelementptr inbounds i8, ptr %8, i64 -8
  invoke void @_ZN6memory10deallocateEPv(ptr noundef nonnull %add.ptr.i.i.i.i3)
          to label %_ZN10ptr_vectorI4exprED2Ev.exit unwind label %terminate.lpad.i.i4

terminate.lpad.i.i4:                              ; preds = %if.then.i.i.i2
  %9 = landingpad { ptr, i32 }
          catch ptr null
  %10 = extractvalue { ptr, i32 } %9, 0
  tail call void @__clang_call_terminate(ptr %10) #23
  unreachable

_ZN10ptr_vectorI4exprED2Ev.exit:                  ; preds = %_ZN4heapIN12_GLOBAL__N_115bool_var_act_ltEED2Ev.exit, %if.then.i.i.i2
  ret void
}